target datalayout = "e-m:e-p270:32:32-p271:32:32-p272:64:64-i64:64-f80:128-n8:16:32:64-S128"
target triple = "x86_64-pc-linux-gnu"

@.str = private unnamed_addr constant [6 x i8] c"%d,%d\00", align 1
@.str.1 = private unnamed_addr constant [3 x i8] c"%d\00", align 1
@.str.2 = private unnamed_addr constant [7 x i8] c"%d+%d\0A\00", align 1
@.str.3 = private unnamed_addr constant [4 x i8] c"No\0A\00", align 1

; Function Attrs: noinline nounwind uwtable
define dso_local i32 @main() #0 {
  %1 = alloca i32, align 4
  %2 = alloca i32, align 4
  %3 = alloca i32, align 4
  %4 = alloca [8 x [8 x i32]], align 16
  %5 = alloca i32, align 4
  %6 = alloca i32, align 4
  %7 = alloca [8 x [8 x i32]], align 16
  %8 = alloca i32, align 4
  %9 = alloca i32, align 4
  %10 = alloca i32, align 4
  store i32 0, i32* %1, align 4
  %11 = call i32 (i8*, ...) @__isoc99_scanf(i8* getelementptr inbounds ([6 x i8], [6 x i8]* @.str, i64 0, i64 0), i32* %2, i32* %3)
  store i32 0, i32* %5, align 4
  br label %12

12:                                               ; preds = %33, %0
  %13 = load i32, i32* %5, align 4
  %14 = load i32, i32* %2, align 4
  %15 = icmp slt i32 %13, %14
  br i1 %15, label %16, label %36

16:                                               ; preds = %12
  store i32 0, i32* %6, align 4
  br label %17

17:                                               ; preds = %29, %16
  %18 = load i32, i32* %6, align 4
  %19 = load i32, i32* %3, align 4
  %20 = icmp slt i32 %18, %19
  br i1 %20, label %21, label %32

21:                                               ; preds = %17
  %22 = load i32, i32* %5, align 4
  %23 = sext i32 %22 to i64
  %24 = getelementptr inbounds [8 x [8 x i32]], [8 x [8 x i32]]* %4, i64 0, i64 %23
  %25 = load i32, i32* %6, align 4
  %26 = sext i32 %25 to i64
  %27 = getelementptr inbounds [8 x i32], [8 x i32]* %24, i64 0, i64 %26
  %28 = call i32 (i8*, ...) @__isoc99_scanf(i8* getelementptr inbounds ([3 x i8], [3 x i8]* @.str.1, i64 0, i64 0), i32* %27)
  br label %29

29:                                               ; preds = %21
  %30 = load i32, i32* %6, align 4
  %31 = add nsw i32 %30, 1
  store i32 %31, i32* %6, align 4
  br label %17

32:                                               ; preds = %17
  br label %33

33:                                               ; preds = %32
  %34 = load i32, i32* %5, align 4
  %35 = add nsw i32 %34, 1
  store i32 %35, i32* %5, align 4
  br label %12

36:                                               ; preds = %12
  store i32 0, i32* %5, align 4
  br label %37

37:                                               ; preds = %57, %36
  %38 = load i32, i32* %5, align 4
  %39 = load i32, i32* %2, align 4
  %40 = icmp slt i32 %38, %39
  br i1 %40, label %41, label %60

41:                                               ; preds = %37
  store i32 0, i32* %6, align 4
  br label %42

42:                                               ; preds = %53, %41
  %43 = load i32, i32* %6, align 4
  %44 = load i32, i32* %3, align 4
  %45 = icmp slt i32 %43, %44
  br i1 %45, label %46, label %56

46:                                               ; preds = %42
  %47 = load i32, i32* %5, align 4
  %48 = sext i32 %47 to i64
  %49 = getelementptr inbounds [8 x [8 x i32]], [8 x [8 x i32]]* %7, i64 0, i64 %48
  %50 = load i32, i32* %6, align 4
  %51 = sext i32 %50 to i64
  %52 = getelementptr inbounds [8 x i32], [8 x i32]* %49, i64 0, i64 %51
  store i32 0, i32* %52, align 4
  br label %53

53:                                               ; preds = %46
  %54 = load i32, i32* %6, align 4
  %55 = add nsw i32 %54, 1
  store i32 %55, i32* %6, align 4
  br label %42

56:                                               ; preds = %42
  br label %57

57:                                               ; preds = %56
  %58 = load i32, i32* %5, align 4
  %59 = add nsw i32 %58, 1
  store i32 %59, i32* %5, align 4
  br label %37

60:                                               ; preds = %37
  store i32 0, i32* %5, align 4
  br label %61

61:                                               ; preds = %99, %60
  %62 = load i32, i32* %5, align 4
  %63 = load i32, i32* %2, align 4
  %64 = icmp slt i32 %62, %63
  br i1 %64, label %65, label %102

65:                                               ; preds = %61
  store i32 0, i32* %8, align 4
  store i32 1, i32* %6, align 4
  br label %66

66:                                               ; preds = %89, %65
  %67 = load i32, i32* %6, align 4
  %68 = load i32, i32* %3, align 4
  %69 = icmp slt i32 %67, %68
  br i1 %69, label %70, label %92

70:                                               ; preds = %66
  %71 = load i32, i32* %5, align 4
  %72 = sext i32 %71 to i64
  %73 = getelementptr inbounds [8 x [8 x i32]], [8 x [8 x i32]]* %4, i64 0, i64 %72
  %74 = load i32, i32* %6, align 4
  %75 = sext i32 %74 to i64
  %76 = getelementptr inbounds [8 x i32], [8 x i32]* %73, i64 0, i64 %75
  %77 = load i32, i32* %76, align 4
  %78 = load i32, i32* %5, align 4
  %79 = sext i32 %78 to i64
  %80 = getelementptr inbounds [8 x [8 x i32]], [8 x [8 x i32]]* %4, i64 0, i64 %79
  %81 = load i32, i32* %8, align 4
  %82 = sext i32 %81 to i64
  %83 = getelementptr inbounds [8 x i32], [8 x i32]* %80, i64 0, i64 %82
  %84 = load i32, i32* %83, align 4
  %85 = icmp sgt i32 %77, %84
  br i1 %85, label %86, label %88

86:                                               ; preds = %70
  %87 = load i32, i32* %6, align 4
  store i32 %87, i32* %8, align 4
  br label %88

88:                                               ; preds = %86, %70
  br label %89

89:                                               ; preds = %88
  %90 = load i32, i32* %6, align 4
  %91 = add nsw i32 %90, 1
  store i32 %91, i32* %6, align 4
  br label %66

92:                                               ; preds = %66
  %93 = load i32, i32* %5, align 4
  %94 = sext i32 %93 to i64
  %95 = getelementptr inbounds [8 x [8 x i32]], [8 x [8 x i32]]* %7, i64 0, i64 %94
  %96 = load i32, i32* %8, align 4
  %97 = sext i32 %96 to i64
  %98 = getelementptr inbounds [8 x i32], [8 x i32]* %95, i64 0, i64 %97
  store i32 1, i32* %98, align 4
  br label %99

99:                                               ; preds = %92
  %100 = load i32, i32* %5, align 4
  %101 = add nsw i32 %100, 1
  store i32 %101, i32* %5, align 4
  br label %61

102:                                              ; preds = %61
  store i32 0, i32* %9, align 4
  store i32 0, i32* %6, align 4
  br label %103

103:                                              ; preds = %148, %102
  %104 = load i32, i32* %6, align 4
  %105 = load i32, i32* %3, align 4
  %106 = icmp slt i32 %104, %105
  br i1 %106, label %107, label %151

107:                                              ; preds = %103
  store i32 0, i32* %10, align 4
  store i32 1, i32* %5, align 4
  br label %108

108:                                              ; preds = %131, %107
  %109 = load i32, i32* %5, align 4
  %110 = load i32, i32* %2, align 4
  %111 = icmp slt i32 %109, %110
  br i1 %111, label %112, label %134

112:                                              ; preds = %108
  %113 = load i32, i32* %5, align 4
  %114 = sext i32 %113 to i64
  %115 = getelementptr inbounds [8 x [8 x i32]], [8 x [8 x i32]]* %4, i64 0, i64 %114
  %116 = load i32, i32* %6, align 4
  %117 = sext i32 %116 to i64
  %118 = getelementptr inbounds [8 x i32], [8 x i32]* %115, i64 0, i64 %117
  %119 = load i32, i32* %118, align 4
  %120 = load i32, i32* %10, align 4
  %121 = sext i32 %120 to i64
  %122 = getelementptr inbounds [8 x [8 x i32]], [8 x [8 x i32]]* %4, i64 0, i64 %121
  %123 = load i32, i32* %6, align 4
  %124 = sext i32 %123 to i64
  %125 = getelementptr inbounds [8 x i32], [8 x i32]* %122, i64 0, i64 %124
  %126 = load i32, i32* %125, align 4
  %127 = icmp slt i32 %119, %126
  br i1 %127, label %128, label %130

128:                                              ; preds = %112
  %129 = load i32, i32* %5, align 4
  store i32 %129, i32* %10, align 4
  br label %130

130:                                              ; preds = %128, %112
  br label %131

131:                                              ; preds = %130
  %132 = load i32, i32* %5, align 4
  %133 = add nsw i32 %132, 1
  store i32 %133, i32* %5, align 4
  br label %108

134:                                              ; preds = %108
  %135 = load i32, i32* %10, align 4
  %136 = sext i32 %135 to i64
  %137 = getelementptr inbounds [8 x [8 x i32]], [8 x [8 x i32]]* %7, i64 0, i64 %136
  %138 = load i32, i32* %6, align 4
  %139 = sext i32 %138 to i64
  %140 = getelementptr inbounds [8 x i32], [8 x i32]* %137, i64 0, i64 %139
  %141 = load i32, i32* %140, align 4
  %142 = icmp eq i32 %141, 1
  br i1 %142, label %143, label %147

143:                                              ; preds = %134
  %144 = load i32, i32* %10, align 4
  %145 = load i32, i32* %6, align 4
  %146 = call i32 (i8*, ...) @printf(i8* getelementptr inbounds ([7 x i8], [7 x i8]* @.str.2, i64 0, i64 0), i32 %144, i32 %145)
  store i32 1, i32* %9, align 4
  br label %151

147:                                              ; preds = %134
  br label %148

148:                                              ; preds = %147
  %149 = load i32, i32* %6, align 4
  %150 = add nsw i32 %149, 1
  store i32 %150, i32* %6, align 4
  br label %103

151:                                              ; preds = %143, %103
  %152 = load i32, i32* %9, align 4
  %153 = icmp eq i32 %152, 0
  br i1 %153, label %154, label %156

154:                                              ; preds = %151
  %155 = call i32 (i8*, ...) @printf(i8* getelementptr inbounds ([4 x i8], [4 x i8]* @.str.3, i64 0, i64 0))
  br label %156

156:                                              ; preds = %154, %151
  ret i32 0
}